target datalayout = "e-m:e-p270:32:32-p271:32:32-p272:64:64-i64:64-i128:128-f80:128-n8:16:32:64-S128"
target triple = "x86_64-pc-linux-gnu"

%struct._zend_extension = type { ptr, ptr, ptr, ptr, ptr, ptr, ptr, ptr, ptr, ptr, ptr, ptr, ptr, ptr, ptr, ptr, ptr, ptr, ptr, ptr, ptr, ptr, ptr, ptr, ptr, i32 }
%struct._zend_extension_persist_data = type { ptr, i64, ptr }

; Function Attrs: nounwind uwtable
define internal void @zend_extension_op_array_persist_handler(ptr noundef %0, ptr noundef %1) #0 {
  %3 = alloca ptr, align 8
  %4 = alloca ptr, align 8
  %5 = alloca i64, align 8
  store ptr %0, ptr %3, align 8, !tbaa !14
  store ptr %1, ptr %4, align 8, !tbaa !93
  %6 = load ptr, ptr %3, align 8, !tbaa !14
  %7 = getelementptr inbounds nuw %struct._zend_extension, ptr %6, i32 0, i32 19
  %8 = load ptr, ptr %7, align 8, !tbaa !40
  %9 = icmp ne ptr %8, null
  br i1 %9, label %10, label %37

10:                                               ; preds = %2
  call void @llvm.lifetime.start.p0(i64 8, ptr %5) #11
  %11 = load ptr, ptr %3, align 8, !tbaa !14
  %12 = getelementptr inbounds nuw %struct._zend_extension, ptr %11, i32 0, i32 19
  %13 = load ptr, ptr %12, align 8, !tbaa !40
  %14 = load ptr, ptr %4, align 8, !tbaa !93
  %15 = getelementptr inbounds nuw %struct._zend_extension_persist_data, ptr %14, i32 0, i32 0
  %16 = load ptr, ptr %15, align 8, !tbaa !89
  %17 = load ptr, ptr %4, align 8, !tbaa !93
  %18 = getelementptr inbounds nuw %struct._zend_extension_persist_data, ptr %17, i32 0, i32 2
  %19 = load ptr, ptr %18, align 8, !tbaa !92
  %20 = call i64 %13(ptr noundef %16, ptr noundef %19)
  store i64 %20, ptr %5, align 8, !tbaa !46
  %21 = load i64, ptr %5, align 8, !tbaa !46
  %22 = icmp ne i64 %21, 0
  br i1 %22, label %23, label %36

23:                                               ; preds = %10
  %24 = load ptr, ptr %4, align 8, !tbaa !93
  %25 = getelementptr inbounds nuw %struct._zend_extension_persist_data, ptr %24, i32 0, i32 2
  %26 = load ptr, ptr %25, align 8, !tbaa !92
  %27 = load i64, ptr %5, align 8, !tbaa !46
  %28 = getelementptr inbounds nuw i8, ptr %26, i64 %27
  %29 = load ptr, ptr %4, align 8, !tbaa !93
  %30 = getelementptr inbounds nuw %struct._zend_extension_persist_data, ptr %29, i32 0, i32 2
  store ptr %28, ptr %30, align 8, !tbaa !92
  %31 = load i64, ptr %5, align 8, !tbaa !46
  %32 = load ptr, ptr %4, align 8, !tbaa !93
  %33 = getelementptr inbounds nuw %struct._zend_extension_persist_data, ptr %32, i32 0, i32 1
  %34 = load i64, ptr %33, align 8, !tbaa !91
  %35 = add i64 %34, %31
  store i64 %35, ptr %33, align 8, !tbaa !91
  br label %36

36:                                               ; preds = %23, %10
  call void @llvm.lifetime.end.p0(i64 8, ptr %5) #11
  br label %37

37:                                               ; preds = %36, %2
  ret void
}