; Function Attrs: nounwind uwtable
define internal void @zend_extension_op_array_persist_handler(ptr noundef readonly captures(none) %0, ptr noundef captures(none) %1) #0 {
  %3 = getelementptr inbounds nuw i8, ptr %0, i64 152
  %4 = load ptr, ptr %3, align 8, !tbaa !31
  %.not = icmp eq ptr %4, null
  br i1 %.not, label %16, label %5

5:                                                ; preds = %2
  %6 = load ptr, ptr %1, align 8, !tbaa !71
  %7 = getelementptr inbounds nuw i8, ptr %1, i64 16
  %8 = load ptr, ptr %7, align 8, !tbaa !74
  %9 = tail call i64 %4(ptr noundef %6, ptr noundef %8) #14
  %.not10 = icmp eq i64 %9, 0
  br i1 %.not10, label %16, label %10

10:                                               ; preds = %5
  %11 = load ptr, ptr %7, align 8, !tbaa !74
  %12 = getelementptr inbounds nuw i8, ptr %11, i64 %9
  store ptr %12, ptr %7, align 8, !tbaa !74
  %13 = getelementptr inbounds nuw i8, ptr %1, i64 8
  %14 = load i64, ptr %13, align 8, !tbaa !73
  %15 = add i64 %14, %9
  store i64 %15, ptr %13, align 8, !tbaa !73
  br label %16

16:                                               ; preds = %5, %10, %2
  ret void
}